; ModuleID = '24/1564.c'
source_filename = "24/1564.c"
target datalayout = "e-m:e-p270:32:32-p271:32:32-p272:64:64-i64:64-f80:128-n8:16:32:64-S128"
target triple = "x86_64-pc-linux-gnu"

@.str = private unnamed_addr constant [3 x i8] c"%c\00", align 1
@.str.1 = private unnamed_addr constant [4 x i8] c"%c\0A\00", align 1

; Function Attrs: noinline nounwind uwtable
define dso_local i32 @main() #0 {
  %1 = alloca i32, align 4
  %2 = alloca i32, align 4
  %3 = alloca i32, align 4
  %4 = alloca i32, align 4
  %5 = alloca i32, align 4
  %6 = alloca i32, align 4
  %7 = alloca i32, align 4
  %8 = alloca i32, align 4
  %9 = alloca i32, align 4
  %10 = alloca i32, align 4
  %11 = alloca [10000 x i32], align 16
  %12 = alloca [10000 x i8], align 16
  store i32 0, i32* %1, align 4
  store i32 0, i32* %3, align 4
  store i32 -1, i32* %8, align 4
  store i32 -1, i32* %9, align 4
  %13 = getelementptr inbounds [10000 x i8], [10000 x i8]* %12, i64 0, i64 0
  %14 = call i32 (i8*, ...) bitcast (i32 (...)* @gets to i32 (i8*, ...)*)(i8* %13)
  %15 = getelementptr inbounds [10000 x i8], [10000 x i8]* %12, i64 0, i64 0
  %16 = call i64 @strlen(i8* %15) #3
  %17 = trunc i64 %16 to i32
  store i32 %17, i32* %6, align 4
  store i32 0, i32* %2, align 4
  br label %18

18:                                               ; preds = %45, %0
  %19 = load i32, i32* %2, align 4
  %20 = load i32, i32* %6, align 4
  %21 = add nsw i32 %20, 1
  %22 = icmp slt i32 %19, %21
  br i1 %22, label %23, label %48

23:                                               ; preds = %18
  %24 = load i32, i32* %2, align 4
  %25 = sext i32 %24 to i64
  %26 = getelementptr inbounds [10000 x i8], [10000 x i8]* %12, i64 0, i64 %25
  %27 = load i8, i8* %26, align 1
  %28 = sext i8 %27 to i32
  %29 = icmp eq i32 %28, 32
  br i1 %29, label %37, label %30

30:                                               ; preds = %23
  %31 = load i32, i32* %2, align 4
  %32 = sext i32 %31 to i64
  %33 = getelementptr inbounds [10000 x i8], [10000 x i8]* %12, i64 0, i64 %32
  %34 = load i8, i8* %33, align 1
  %35 = sext i8 %34 to i32
  %36 = icmp eq i32 %35, 44
  br i1 %36, label %37, label %44

37:                                               ; preds = %30, %23
  %38 = load i32, i32* %2, align 4
  %39 = load i32, i32* %3, align 4
  %40 = sext i32 %39 to i64
  %41 = getelementptr inbounds [10000 x i32], [10000 x i32]* %11, i64 0, i64 %40
  store i32 %38, i32* %41, align 4
  %42 = load i32, i32* %3, align 4
  %43 = add nsw i32 %42, 1
  store i32 %43, i32* %3, align 4
  br label %44

44:                                               ; preds = %37, %30
  br label %45

45:                                               ; preds = %44
  %46 = load i32, i32* %2, align 4
  %47 = add nsw i32 %46, 1
  store i32 %47, i32* %2, align 4
  br label %18

48:                                               ; preds = %18
  %49 = load i32, i32* %6, align 4
  %50 = load i32, i32* %3, align 4
  %51 = sext i32 %50 to i64
  %52 = getelementptr inbounds [10000 x i32], [10000 x i32]* %11, i64 0, i64 %51
  store i32 %49, i32* %52, align 4
  %53 = getelementptr inbounds [10000 x i32], [10000 x i32]* %11, i64 0, i64 0
  %54 = load i32, i32* %53, align 16
  store i32 %54, i32* %7, align 4
  %55 = load i32, i32* %7, align 4
  store i32 %55, i32* %4, align 4
  %56 = load i32, i32* %7, align 4
  store i32 %56, i32* %5, align 4
  store i32 1, i32* %2, align 4
  br label %57

57:                                               ; preds = %96, %48
  %58 = load i32, i32* %2, align 4
  %59 = load i32, i32* %3, align 4
  %60 = add nsw i32 %59, 1
  %61 = icmp slt i32 %58, %60
  br i1 %61, label %62, label %99

62:                                               ; preds = %57
  %63 = load i32, i32* %2, align 4
  %64 = sext i32 %63 to i64
  %65 = getelementptr inbounds [10000 x i32], [10000 x i32]* %11, i64 0, i64 %64
  %66 = load i32, i32* %65, align 4
  %67 = load i32, i32* %2, align 4
  %68 = sub nsw i32 %67, 1
  %69 = sext i32 %68 to i64
  %70 = getelementptr inbounds [10000 x i32], [10000 x i32]* %11, i64 0, i64 %69
  %71 = load i32, i32* %70, align 4
  %72 = sub nsw i32 %66, %71
  %73 = sub nsw i32 %72, 1
  store i32 %73, i32* %7, align 4
  %74 = load i32, i32* %7, align 4
  %75 = icmp sgt i32 %74, 0
  br i1 %75, label %76, label %94

76:                                               ; preds = %62
  %77 = load i32, i32* %7, align 4
  %78 = load i32, i32* %4, align 4
  %79 = icmp sgt i32 %77, %78
  br i1 %79, label %80, label %84

80:                                               ; preds = %76
  %81 = load i32, i32* %2, align 4
  %82 = sub nsw i32 %81, 1
  store i32 %82, i32* %9, align 4
  %83 = load i32, i32* %7, align 4
  store i32 %83, i32* %4, align 4
  br label %84

84:                                               ; preds = %80, %76
  %85 = load i32, i32* %7, align 4
  %86 = load i32, i32* %5, align 4
  %87 = icmp slt i32 %85, %86
  br i1 %87, label %88, label %92

88:                                               ; preds = %84
  %89 = load i32, i32* %2, align 4
  %90 = sub nsw i32 %89, 1
  store i32 %90, i32* %8, align 4
  %91 = load i32, i32* %7, align 4
  store i32 %91, i32* %5, align 4
  br label %93

92:                                               ; preds = %84
  store i32 0, i32* %10, align 4
  br label %93

93:                                               ; preds = %92, %88
  br label %95

94:                                               ; preds = %62
  store i32 0, i32* %10, align 4
  br label %95

95:                                               ; preds = %94, %93
  br label %96

96:                                               ; preds = %95
  %97 = load i32, i32* %2, align 4
  %98 = add nsw i32 %97, 1
  store i32 %98, i32* %2, align 4
  br label %57

99:                                               ; preds = %57
  %100 = load i32, i32* %9, align 4
  %101 = icmp eq i32 %100, -1
  br i1 %101, label %102, label %126

102:                                              ; preds = %99
  store i32 0, i32* %2, align 4
  br label %103

103:                                              ; preds = %116, %102
  %104 = load i32, i32* %2, align 4
  %105 = getelementptr inbounds [10000 x i32], [10000 x i32]* %11, i64 0, i64 0
  %106 = load i32, i32* %105, align 16
  %107 = sub nsw i32 %106, 1
  %108 = icmp slt i32 %104, %107
  br i1 %108, label %109, label %119

109:                                              ; preds = %103
  %110 = load i32, i32* %2, align 4
  %111 = sext i32 %110 to i64
  %112 = getelementptr inbounds [10000 x i8], [10000 x i8]* %12, i64 0, i64 %111
  %113 = load i8, i8* %112, align 1
  %114 = sext i8 %113 to i32
  %115 = call i32 (i8*, ...) @printf(i8* getelementptr inbounds ([3 x i8], [3 x i8]* @.str, i64 0, i64 0), i32 %114)
  br label %116

116:                                              ; preds = %109
  %117 = load i32, i32* %2, align 4
  %118 = add nsw i32 %117, 1
  store i32 %118, i32* %2, align 4
  br label %103

119:                                              ; preds = %103
  %120 = load i32, i32* %2, align 4
  %121 = sext i32 %120 to i64
  %122 = getelementptr inbounds [10000 x i8], [10000 x i8]* %12, i64 0, i64 %121
  %123 = load i8, i8* %122, align 1
  %124 = sext i8 %123 to i32
  %125 = call i32 (i8*, ...) @printf(i8* getelementptr inbounds ([4 x i8], [4 x i8]* @.str.1, i64 0, i64 0), i32 %124)
  br label %158

126:                                              ; preds = %99
  %127 = load i32, i32* %9, align 4
  %128 = sext i32 %127 to i64
  %129 = getelementptr inbounds [10000 x i32], [10000 x i32]* %11, i64 0, i64 %128
  %130 = load i32, i32* %129, align 4
  %131 = add nsw i32 %130, 1
  store i32 %131, i32* %2, align 4
  br label %132

132:                                              ; preds = %148, %126
  %133 = load i32, i32* %2, align 4
  %134 = load i32, i32* %9, align 4
  %135 = add nsw i32 %134, 1
  %136 = sext i32 %135 to i64
  %137 = getelementptr inbounds [10000 x i32], [10000 x i32]* %11, i64 0, i64 %136
  %138 = load i32, i32* %137, align 4
  %139 = sub nsw i32 %138, 1
  %140 = icmp slt i32 %133, %139
  br i1 %140, label %141, label %151

141:                                              ; preds = %132
  %142 = load i32, i32* %2, align 4
  %143 = sext i32 %142 to i64
  %144 = getelementptr inbounds [10000 x i8], [10000 x i8]* %12, i64 0, i64 %143
  %145 = load i8, i8* %144, align 1
  %146 = sext i8 %145 to i32
  %147 = call i32 (i8*, ...) @printf(i8* getelementptr inbounds ([3 x i8], [3 x i8]* @.str, i64 0, i64 0), i32 %146)
  br label %148

148:                                              ; preds = %141
  %149 = load i32, i32* %2, align 4
  %150 = add nsw i32 %149, 1
  store i32 %150, i32* %2, align 4
  br label %132

151:                                              ; preds = %132
  %152 = load i32, i32* %2, align 4
  %153 = sext i32 %152 to i64
  %154 = getelementptr inbounds [10000 x i8], [10000 x i8]* %12, i64 0, i64 %153
  %155 = load i8, i8* %154, align 1
  %156 = sext i8 %155 to i32
  %157 = call i32 (i8*, ...) @printf(i8* getelementptr inbounds ([4 x i8], [4 x i8]* @.str.1, i64 0, i64 0), i32 %156)
  br label %158

158:                                              ; preds = %151, %119
  %159 = load i32, i32* %8, align 4
  %160 = icmp eq i32 %159, -1
  br i1 %160, label %161, label %178

161:                                              ; preds = %158
  store i32 0, i32* %2, align 4
  br label %162

162:                                              ; preds = %174, %161
  %163 = load i32, i32* %2, align 4
  %164 = getelementptr inbounds [10000 x i32], [10000 x i32]* %11, i64 0, i64 0
  %165 = load i32, i32* %164, align 16
  %166 = icmp slt i32 %163, %165
  br i1 %166, label %167, label %177

167:                                              ; preds = %162
  %168 = load i32, i32* %2, align 4
  %169 = sext i32 %168 to i64
  %170 = getelementptr inbounds [10000 x i8], [10000 x i8]* %12, i64 0, i64 %169
  %171 = load i8, i8* %170, align 1
  %172 = sext i8 %171 to i32
  %173 = call i32 (i8*, ...) @printf(i8* getelementptr inbounds ([3 x i8], [3 x i8]* @.str, i64 0, i64 0), i32 %172)
  br label %174

174:                                              ; preds = %167
  %175 = load i32, i32* %2, align 4
  %176 = add nsw i32 %175, 1
  store i32 %176, i32* %2, align 4
  br label %162

177:                                              ; preds = %162
  br label %203

178:                                              ; preds = %158
  %179 = load i32, i32* %8, align 4
  %180 = sext i32 %179 to i64
  %181 = getelementptr inbounds [10000 x i32], [10000 x i32]* %11, i64 0, i64 %180
  %182 = load i32, i32* %181, align 4
  %183 = add nsw i32 %182, 1
  store i32 %183, i32* %2, align 4
  br label %184

184:                                              ; preds = %199, %178
  %185 = load i32, i32* %2, align 4
  %186 = load i32, i32* %8, align 4
  %187 = add nsw i32 %186, 1
  %188 = sext i32 %187 to i64
  %189 = getelementptr inbounds [10000 x i32], [10000 x i32]* %11, i64 0, i64 %188
  %190 = load i32, i32* %189, align 4
  %191 = icmp slt i32 %185, %190
  br i1 %191, label %192, label %202

192:                                              ; preds = %184
  %193 = load i32, i32* %2, align 4
  %194 = sext i32 %193 to i64
  %195 = getelementptr inbounds [10000 x i8], [10000 x i8]* %12, i64 0, i64 %194
  %196 = load i8, i8* %195, align 1
  %197 = sext i8 %196 to i32
  %198 = call i32 (i8*, ...) @printf(i8* getelementptr inbounds ([3 x i8], [3 x i8]* @.str, i64 0, i64 0), i32 %197)
  br label %199

199:                                              ; preds = %192
  %200 = load i32, i32* %2, align 4
  %201 = add nsw i32 %200, 1
  store i32 %201, i32* %2, align 4
  br label %184

202:                                              ; preds = %184
  br label %203

203:                                              ; preds = %202, %177
  ret i32 0
}

declare dso_local i32 @gets(...) #1

; Function Attrs: nounwind readonly
declare dso_local i64 @strlen(i8*) #2

declare dso_local i32 @printf(i8*, ...) #1


!llvm.module.flags = !{!0}
!llvm.ident = !{!1}

!0 = !{i32 1, !"wchar_size", i32 4}
!1 = !{!"clang version 10.0.0-4ubuntu1 "}
